; Function Attrs: mustprogress nounwind uwtable
define void @_ZN8facebook5velox5cache6SsdPinD2Ev(ptr nocapture noundef nonnull align 8 dereferenceable(16) %this) unnamed_addr #3 align 2 personality ptr @__gxx_personality_v0 {
entry:
  invoke void @_ZN8facebook5velox5cache6SsdPin5clearEv(ptr noundef nonnull align 8 dereferenceable(16) %this)
          to label %invoke.cont unwind label %terminate.lpad

invoke.cont:                                      ; preds = %entry
  ret void

terminate.lpad:                                   ; preds = %entry
  %0 = landingpad { ptr, i32 }
          catch ptr null
  %1 = extractvalue { ptr, i32 } %0, 0
  tail call void @__clang_call_terminate(ptr %1) #33
  unreachable
}